; Function Attrs: mustprogress uwtable
define dso_local void @_ZN9cmFileAPI12BuildVersionEjj(ptr dead_on_unwind noalias nonnull writable sret(%"class.Json::Value") align 8 %0, i32 noundef %1, i32 noundef %2) local_unnamed_addr #5 align 2 personality ptr @__gxx_personality_v0 {
  %4 = alloca %"class.Json::Value", align 8
  %5 = alloca %"class.Json::Value", align 8
  tail call void @_ZN4Json5ValueC1ENS_9ValueTypeE(ptr noundef nonnull align 8 dereferenceable(40) %0, i32 noundef 0)
  call void @llvm.lifetime.start.p0(i64 40, ptr nonnull %4) #24
  invoke void @_ZN4Json5ValueC1Ej(ptr noundef nonnull align 8 dereferenceable(40) %4, i32 noundef %1)
          to label %6 unwind label %14

6:                                                ; preds = %3
  %7 = invoke noundef nonnull align 8 dereferenceable(40) ptr @_ZN4Json5ValueixEPKc(ptr noundef nonnull align 8 dereferenceable(40) %0, ptr noundef nonnull @.str.51)
          to label %8 unwind label %16

8:                                                ; preds = %6
  %9 = call noundef nonnull align 8 dereferenceable(40) ptr @_ZN4Json5ValueaSEOS0_(ptr noundef nonnull align 8 dereferenceable(40) %7, ptr noundef nonnull align 8 dereferenceable(40) %4) #24
  call void @_ZN4Json5ValueD1Ev(ptr noundef nonnull align 8 dereferenceable(40) %4) #24
  call void @llvm.lifetime.end.p0(i64 40, ptr nonnull %4) #24
  call void @llvm.lifetime.start.p0(i64 40, ptr nonnull %5) #24
  invoke void @_ZN4Json5ValueC1Ej(ptr noundef nonnull align 8 dereferenceable(40) %5, i32 noundef %2)
          to label %10 unwind label %19

10:                                               ; preds = %8
  %11 = invoke noundef nonnull align 8 dereferenceable(40) ptr @_ZN4Json5ValueixEPKc(ptr noundef nonnull align 8 dereferenceable(40) %0, ptr noundef nonnull @.str.52)
          to label %12 unwind label %21

12:                                               ; preds = %10
  %13 = call noundef nonnull align 8 dereferenceable(40) ptr @_ZN4Json5ValueaSEOS0_(ptr noundef nonnull align 8 dereferenceable(40) %11, ptr noundef nonnull align 8 dereferenceable(40) %5) #24
  call void @_ZN4Json5ValueD1Ev(ptr noundef nonnull align 8 dereferenceable(40) %5) #24
  call void @llvm.lifetime.end.p0(i64 40, ptr nonnull %5) #24
  ret void

14:                                               ; preds = %3
  %15 = landingpad { ptr, i32 }
          cleanup
  br label %18

16:                                               ; preds = %6
  %17 = landingpad { ptr, i32 }
          cleanup
  call void @_ZN4Json5ValueD1Ev(ptr noundef nonnull align 8 dereferenceable(40) %4) #24
  br label %18

18:                                               ; preds = %16, %14
  %.pn = phi { ptr, i32 } [ %17, %16 ], [ %15, %14 ]
  call void @llvm.lifetime.end.p0(i64 40, ptr nonnull %4) #24
  br label %24

19:                                               ; preds = %8
  %20 = landingpad { ptr, i32 }
          cleanup
  br label %23

21:                                               ; preds = %10
  %22 = landingpad { ptr, i32 }
          cleanup
  call void @_ZN4Json5ValueD1Ev(ptr noundef nonnull align 8 dereferenceable(40) %5) #24
  br label %23

23:                                               ; preds = %21, %19
  %.pn8 = phi { ptr, i32 } [ %22, %21 ], [ %20, %19 ]
  call void @llvm.lifetime.end.p0(i64 40, ptr nonnull %5) #24
  br label %24

24:                                               ; preds = %23, %18
  %.pn8.pn = phi { ptr, i32 } [ %.pn8, %23 ], [ %.pn, %18 ]
  call void @_ZN4Json5ValueD1Ev(ptr noundef nonnull align 8 dereferenceable(40) %0) #24
  resume { ptr, i32 } %.pn8.pn
}